target datalayout = "e-m:e-p270:32:32-p271:32:32-p272:64:64-i64:64-i128:128-f80:128-n8:16:32:64-S128"
target triple = "x86_64-pc-linux-gnu"

%struct.AVRational = type { i32, i32 }
%struct.AVPacket = type { ptr, i64, i64, ptr, i32, i32, i32, ptr, i32, i64, i64, ptr, ptr, %struct.AVRational }
%struct.AVStream = type { ptr, i32, i32, ptr, ptr, %struct.AVRational, i64, i64, i64, i32, i32, %struct.AVRational, ptr, %struct.AVRational, %struct.AVPacket, i32, %struct.AVRational, i32 }
%struct.AVCodecParameters = type { i32, i32, i32, ptr, i32, ptr, i32, i32, i64, i32, i32, i32, i32, i32, i32, %struct.AVRational, %struct.AVRational, i32, i32, i32, i32, i32, i32, i32, %struct.AVChannelLayout, i32, i32, i32, i32, i32, i32 }
%struct.AVChannelLayout = type { i32, i32, %union.anon.0, ptr }
%union.anon.0 = type { i64 }

; Function Attrs: nounwind uwtable
define internal i32 @copy_stream_props(ptr noundef %0, ptr noundef %1) #0 {
  %3 = alloca i32, align 4
  %4 = alloca ptr, align 8
  %5 = alloca ptr, align 8
  %6 = alloca i32, align 4
  %7 = alloca i32, align 4
  store ptr %0, ptr %4, align 8, !tbaa !65
  store ptr %1, ptr %5, align 8, !tbaa !65
  call void @llvm.lifetime.start.p0(i64 4, ptr %6) #14
  %8 = load ptr, ptr %4, align 8, !tbaa !65
  %9 = getelementptr inbounds nuw %struct.AVStream, ptr %8, i32 0, i32 3
  %10 = load ptr, ptr %9, align 8, !tbaa !114
  %11 = getelementptr inbounds nuw %struct.AVCodecParameters, ptr %10, i32 0, i32 1
  %12 = load i32, ptr %11, align 4, !tbaa !119
  %13 = icmp ne i32 %12, 0
  br i1 %13, label %21, label %14

14:                                               ; preds = %2
  %15 = load ptr, ptr %5, align 8, !tbaa !65
  %16 = getelementptr inbounds nuw %struct.AVStream, ptr %15, i32 0, i32 3
  %17 = load ptr, ptr %16, align 8, !tbaa !114
  %18 = getelementptr inbounds nuw %struct.AVCodecParameters, ptr %17, i32 0, i32 1
  %19 = load i32, ptr %18, align 4, !tbaa !119
  %20 = icmp ne i32 %19, 0
  br i1 %20, label %73, label %21

21:                                               ; preds = %14, %2
  %22 = load ptr, ptr %4, align 8, !tbaa !65
  %23 = getelementptr inbounds nuw %struct.AVStream, ptr %22, i32 0, i32 3
  %24 = load ptr, ptr %23, align 8, !tbaa !114
  %25 = getelementptr inbounds nuw %struct.AVCodecParameters, ptr %24, i32 0, i32 4
  %26 = load i32, ptr %25, align 8, !tbaa !138
  %27 = load ptr, ptr %5, align 8, !tbaa !65
  %28 = getelementptr inbounds nuw %struct.AVStream, ptr %27, i32 0, i32 3
  %29 = load ptr, ptr %28, align 8, !tbaa !114
  %30 = getelementptr inbounds nuw %struct.AVCodecParameters, ptr %29, i32 0, i32 4
  %31 = load i32, ptr %30, align 8, !tbaa !138
  %32 = icmp slt i32 %26, %31
  br i1 %32, label %33, label %48

33:                                               ; preds = %21
  %34 = load ptr, ptr %4, align 8, !tbaa !65
  %35 = getelementptr inbounds nuw %struct.AVStream, ptr %34, i32 0, i32 3
  %36 = load ptr, ptr %35, align 8, !tbaa !114
  %37 = load ptr, ptr %5, align 8, !tbaa !65
  %38 = getelementptr inbounds nuw %struct.AVStream, ptr %37, i32 0, i32 3
  %39 = load ptr, ptr %38, align 8, !tbaa !114
  %40 = getelementptr inbounds nuw %struct.AVCodecParameters, ptr %39, i32 0, i32 4
  %41 = load i32, ptr %40, align 8, !tbaa !138
  %42 = call i32 @ff_alloc_extradata(ptr noundef %36, i32 noundef %41)
  store i32 %42, ptr %6, align 4, !tbaa !32
  %43 = load i32, ptr %6, align 4, !tbaa !32
  %44 = icmp slt i32 %43, 0
  br i1 %44, label %45, label %47

45:                                               ; preds = %33
  %46 = load i32, ptr %6, align 4, !tbaa !32
  store i32 %46, ptr %3, align 4
  store i32 1, ptr %7, align 4
  br label %112

47:                                               ; preds = %33
  br label %48

48:                                               ; preds = %47, %21
  %49 = load ptr, ptr %5, align 8, !tbaa !65
  %50 = getelementptr inbounds nuw %struct.AVStream, ptr %49, i32 0, i32 3
  %51 = load ptr, ptr %50, align 8, !tbaa !114
  %52 = getelementptr inbounds nuw %struct.AVCodecParameters, ptr %51, i32 0, i32 4
  %53 = load i32, ptr %52, align 8, !tbaa !138
  %54 = icmp ne i32 %53, 0
  br i1 %54, label %55, label %72

55:                                               ; preds = %48
  %56 = load ptr, ptr %4, align 8, !tbaa !65
  %57 = getelementptr inbounds nuw %struct.AVStream, ptr %56, i32 0, i32 3
  %58 = load ptr, ptr %57, align 8, !tbaa !114
  %59 = getelementptr inbounds nuw %struct.AVCodecParameters, ptr %58, i32 0, i32 3
  %60 = load ptr, ptr %59, align 8, !tbaa !120
  %61 = load ptr, ptr %5, align 8, !tbaa !65
  %62 = getelementptr inbounds nuw %struct.AVStream, ptr %61, i32 0, i32 3
  %63 = load ptr, ptr %62, align 8, !tbaa !114
  %64 = getelementptr inbounds nuw %struct.AVCodecParameters, ptr %63, i32 0, i32 3
  %65 = load ptr, ptr %64, align 8, !tbaa !120
  %66 = load ptr, ptr %5, align 8, !tbaa !65
  %67 = getelementptr inbounds nuw %struct.AVStream, ptr %66, i32 0, i32 3
  %68 = load ptr, ptr %67, align 8, !tbaa !114
  %69 = getelementptr inbounds nuw %struct.AVCodecParameters, ptr %68, i32 0, i32 4
  %70 = load i32, ptr %69, align 8, !tbaa !138
  %71 = sext i32 %70 to i64
  call void @llvm.memcpy.p0.p0.i64(ptr align 1 %60, ptr align 1 %65, i64 %71, i1 false)
  br label %72

72:                                               ; preds = %55, %48
  store i32 0, ptr %3, align 4
  store i32 1, ptr %7, align 4
  br label %112

73:                                               ; preds = %14
  %74 = load ptr, ptr %4, align 8, !tbaa !65
  %75 = getelementptr inbounds nuw %struct.AVStream, ptr %74, i32 0, i32 3
  %76 = load ptr, ptr %75, align 8, !tbaa !114
  %77 = load ptr, ptr %5, align 8, !tbaa !65
  %78 = getelementptr inbounds nuw %struct.AVStream, ptr %77, i32 0, i32 3
  %79 = load ptr, ptr %78, align 8, !tbaa !114
  %80 = call i32 @avcodec_parameters_copy(ptr noundef %76, ptr noundef %79)
  store i32 %80, ptr %6, align 4, !tbaa !32
  %81 = icmp slt i32 %80, 0
  br i1 %81, label %82, label %84

82:                                               ; preds = %73
  %83 = load i32, ptr %6, align 4, !tbaa !32
  store i32 %83, ptr %3, align 4
  store i32 1, ptr %7, align 4
  br label %112

84:                                               ; preds = %73
  %85 = load ptr, ptr %4, align 8, !tbaa !65
  %86 = getelementptr inbounds nuw %struct.AVStream, ptr %85, i32 0, i32 16
  %87 = load ptr, ptr %5, align 8, !tbaa !65
  %88 = getelementptr inbounds nuw %struct.AVStream, ptr %87, i32 0, i32 16
  call void @llvm.memcpy.p0.p0.i64(ptr align 4 %86, ptr align 4 %88, i64 8, i1 false), !tbaa.struct !148
  %89 = load ptr, ptr %4, align 8, !tbaa !65
  %90 = getelementptr inbounds nuw %struct.AVStream, ptr %89, i32 0, i32 13
  %91 = load ptr, ptr %5, align 8, !tbaa !65
  %92 = getelementptr inbounds nuw %struct.AVStream, ptr %91, i32 0, i32 13
  call void @llvm.memcpy.p0.p0.i64(ptr align 8 %90, ptr align 8 %92, i64 8, i1 false), !tbaa.struct !148
  %93 = load ptr, ptr %4, align 8, !tbaa !65
  %94 = getelementptr inbounds nuw %struct.AVStream, ptr %93, i32 0, i32 11
  %95 = load ptr, ptr %5, align 8, !tbaa !65
  %96 = getelementptr inbounds nuw %struct.AVStream, ptr %95, i32 0, i32 11
  call void @llvm.memcpy.p0.p0.i64(ptr align 8 %94, ptr align 8 %96, i64 8, i1 false), !tbaa.struct !148
  %97 = load ptr, ptr %4, align 8, !tbaa !65
  %98 = load ptr, ptr %5, align 8, !tbaa !65
  %99 = getelementptr inbounds nuw %struct.AVStream, ptr %98, i32 0, i32 5
  %100 = getelementptr inbounds nuw %struct.AVRational, ptr %99, i32 0, i32 0
  %101 = load i32, ptr %100, align 8, !tbaa !149
  %102 = load ptr, ptr %5, align 8, !tbaa !65
  %103 = getelementptr inbounds nuw %struct.AVStream, ptr %102, i32 0, i32 5
  %104 = getelementptr inbounds nuw %struct.AVRational, ptr %103, i32 0, i32 1
  %105 = load i32, ptr %104, align 4, !tbaa !150
  call void @avpriv_set_pts_info(ptr noundef %97, i32 noundef 64, i32 noundef %101, i32 noundef %105)
  %106 = load ptr, ptr %4, align 8, !tbaa !65
  %107 = getelementptr inbounds nuw %struct.AVStream, ptr %106, i32 0, i32 12
  %108 = load ptr, ptr %5, align 8, !tbaa !65
  %109 = getelementptr inbounds nuw %struct.AVStream, ptr %108, i32 0, i32 12
  %110 = load ptr, ptr %109, align 8, !tbaa !151
  %111 = call i32 @av_dict_copy(ptr noundef %107, ptr noundef %110, i32 noundef 0)
  store i32 0, ptr %3, align 4
  store i32 1, ptr %7, align 4
  br label %112

112:                                              ; preds = %84, %82, %72, %45
  call void @llvm.lifetime.end.p0(i64 4, ptr %6) #14
  %113 = load i32, ptr %3, align 4
  ret i32 %113
}