; Function Attrs: nounwind uwtable
define internal fastcc range(i32 -2147483648, 1) i32 @copy_stream_props(ptr noundef %0, ptr noundef readonly captures(none) %1) unnamed_addr #1 {
  %3 = getelementptr inbounds nuw i8, ptr %0, i64 16
  %4 = load ptr, ptr %3, align 8, !tbaa !67
  %5 = getelementptr inbounds nuw i8, ptr %4, i64 4
  %6 = load i32, ptr %5, align 4, !tbaa !72
  %.not = icmp eq i32 %6, 0
  %7 = getelementptr inbounds nuw i8, ptr %1, i64 16
  %8 = load ptr, ptr %7, align 8, !tbaa !67
  br i1 %.not, label %9, label %._crit_edge

9:                                                ; preds = %2
  %10 = getelementptr inbounds nuw i8, ptr %8, i64 4
  %11 = load i32, ptr %10, align 4, !tbaa !72
  %.not30 = icmp eq i32 %11, 0
  br i1 %.not30, label %._crit_edge, label %31

._crit_edge:                                      ; preds = %2, %9
  %12 = getelementptr inbounds nuw i8, ptr %4, i64 24
  %13 = load i32, ptr %12, align 8, !tbaa !121
  %14 = getelementptr inbounds nuw i8, ptr %1, i64 16
  %15 = getelementptr inbounds nuw i8, ptr %8, i64 24
  %16 = load i32, ptr %15, align 8, !tbaa !121
  %17 = icmp slt i32 %13, %16
  br i1 %17, label %18, label %21

18:                                               ; preds = %._crit_edge
  %19 = tail call i32 @ff_alloc_extradata(ptr noundef nonnull %4, i32 noundef %16) #14
  %20 = icmp slt i32 %19, 0
  br i1 %20, label %52, label %._crit_edge32

._crit_edge32:                                    ; preds = %18
  %.pre33 = load ptr, ptr %14, align 8, !tbaa !67
  %.phi.trans.insert34 = getelementptr inbounds nuw i8, ptr %.pre33, i64 24
  %.pre35 = load i32, ptr %.phi.trans.insert34, align 8, !tbaa !121
  br label %21

21:                                               ; preds = %._crit_edge32, %._crit_edge
  %22 = phi i32 [ %.pre35, %._crit_edge32 ], [ %16, %._crit_edge ]
  %23 = phi ptr [ %.pre33, %._crit_edge32 ], [ %8, %._crit_edge ]
  %.not31 = icmp eq i32 %22, 0
  br i1 %.not31, label %52, label %24

24:                                               ; preds = %21
  %25 = load ptr, ptr %3, align 8, !tbaa !67
  %26 = getelementptr inbounds nuw i8, ptr %25, i64 16
  %27 = load ptr, ptr %26, align 8, !tbaa !73
  %28 = getelementptr inbounds nuw i8, ptr %23, i64 16
  %29 = load ptr, ptr %28, align 8, !tbaa !73
  %30 = sext i32 %22 to i64
  tail call void @llvm.memcpy.p0.p0.i64(ptr align 1 %27, ptr align 1 %29, i64 %30, i1 false)
  br label %52

31:                                               ; preds = %9
  %32 = tail call i32 @avcodec_parameters_copy(ptr noundef nonnull %4, ptr noundef nonnull %8) #14
  %33 = icmp slt i32 %32, 0
  br i1 %33, label %52, label %34

34:                                               ; preds = %31
  %35 = getelementptr inbounds nuw i8, ptr %0, i64 204
  %36 = getelementptr inbounds nuw i8, ptr %1, i64 204
  %37 = load i64, ptr %36, align 4
  store i64 %37, ptr %35, align 4
  %38 = getelementptr inbounds nuw i8, ptr %0, i64 88
  %39 = getelementptr inbounds nuw i8, ptr %1, i64 88
  %40 = load i64, ptr %39, align 8
  store i64 %40, ptr %38, align 8
  %41 = getelementptr inbounds nuw i8, ptr %0, i64 72
  %42 = getelementptr inbounds nuw i8, ptr %1, i64 72
  %43 = load i64, ptr %42, align 8
  store i64 %43, ptr %41, align 8
  %44 = getelementptr inbounds nuw i8, ptr %1, i64 32
  %45 = load i32, ptr %44, align 8, !tbaa !132
  %46 = getelementptr inbounds nuw i8, ptr %1, i64 36
  %47 = load i32, ptr %46, align 4, !tbaa !133
  tail call void @avpriv_set_pts_info(ptr noundef nonnull %0, i32 noundef 64, i32 noundef %45, i32 noundef %47) #14
  %48 = getelementptr inbounds nuw i8, ptr %0, i64 80
  %49 = getelementptr inbounds nuw i8, ptr %1, i64 80
  %50 = load ptr, ptr %49, align 8, !tbaa !134
  %51 = tail call i32 @av_dict_copy(ptr noundef nonnull %48, ptr noundef %50, i32 noundef 0) #14
  br label %52

52:                                               ; preds = %31, %21, %24, %18, %34
  %.0 = phi i32 [ 0, %34 ], [ %19, %18 ], [ 0, %24 ], [ 0, %21 ], [ %32, %31 ]
  ret i32 %.0
}